target datalayout = "e-m:e-p270:32:32-p271:32:32-p272:64:64-i64:64-i128:128-f80:128-n8:16:32:64-S128"
target triple = "x86_64-pc-linux-gnu"

%struct.SlruSharedData = type { i32, ptr, ptr, ptr, ptr, ptr, ptr, ptr, ptr, ptr, i32, %struct.pg_atomic_uint64, i32 }
%struct.pg_atomic_uint64 = type { i64 }
%union.LWLockPadded = type { %struct.LWLock, [112 x i8] }
%struct.LWLock = type { i16, %struct.pg_atomic_uint32, %struct.proclist_head }
%struct.pg_atomic_uint32 = type { i32 }
%struct.proclist_head = type { i32, i32 }
%struct.SlruCtlData = type { ptr, i16, i8, i32, ptr, [64 x i8] }

; Function Attrs: inlinehint nounwind uwtable
define internal void @SlruRecentlyUsed(ptr noundef %0, i32 noundef %1) #4 {
  %3 = alloca ptr, align 8
  %4 = alloca i32, align 4
  %5 = alloca i32, align 4
  %6 = alloca i32, align 4
  store ptr %0, ptr %3, align 8
  store i32 %1, ptr %4, align 4
  call void @llvm.lifetime.start.p0(i64 4, ptr %5) #9
  %7 = load i32, ptr %4, align 4
  %8 = ashr i32 %7, 4
  store i32 %8, ptr %5, align 4
  call void @llvm.lifetime.start.p0(i64 4, ptr %6) #9
  %9 = load ptr, ptr %3, align 8
  %10 = getelementptr inbounds nuw %struct.SlruSharedData, ptr %9, i32 0, i32 8
  %11 = load ptr, ptr %10, align 8
  %12 = load i32, ptr %5, align 4
  %13 = sext i32 %12 to i64
  %14 = getelementptr inbounds i32, ptr %11, i64 %13
  %15 = load i32, ptr %14, align 4
  store i32 %15, ptr %6, align 4
  %16 = load i32, ptr %6, align 4
  %17 = load ptr, ptr %3, align 8
  %18 = getelementptr inbounds nuw %struct.SlruSharedData, ptr %17, i32 0, i32 5
  %19 = load ptr, ptr %18, align 8
  %20 = load i32, ptr %4, align 4
  %21 = sext i32 %20 to i64
  %22 = getelementptr inbounds i32, ptr %19, i64 %21
  %23 = load i32, ptr %22, align 4
  %24 = icmp ne i32 %16, %23
  br i1 %24, label %25, label %41

25:                                               ; preds = %2
  %26 = load i32, ptr %6, align 4
  %27 = add i32 %26, 1
  store i32 %27, ptr %6, align 4
  %28 = load ptr, ptr %3, align 8
  %29 = getelementptr inbounds nuw %struct.SlruSharedData, ptr %28, i32 0, i32 8
  %30 = load ptr, ptr %29, align 8
  %31 = load i32, ptr %5, align 4
  %32 = sext i32 %31 to i64
  %33 = getelementptr inbounds i32, ptr %30, i64 %32
  store i32 %27, ptr %33, align 4
  %34 = load i32, ptr %6, align 4
  %35 = load ptr, ptr %3, align 8
  %36 = getelementptr inbounds nuw %struct.SlruSharedData, ptr %35, i32 0, i32 5
  %37 = load ptr, ptr %36, align 8
  %38 = load i32, ptr %4, align 4
  %39 = sext i32 %38 to i64
  %40 = getelementptr inbounds i32, ptr %37, i64 %39
  store i32 %34, ptr %40, align 4
  br label %41

41:                                               ; preds = %25, %2
  call void @llvm.lifetime.end.p0(i64 4, ptr %6) #9
  call void @llvm.lifetime.end.p0(i64 4, ptr %5) #9
  ret void
}

; Function Attrs: inlinehint nounwind uwtable
define internal ptr @SimpleLruGetBankLock(ptr noundef %0, i64 noundef %1) #4 {
  %3 = alloca ptr, align 8
  %4 = alloca i64, align 8
  %5 = alloca i32, align 4
  store ptr %0, ptr %3, align 8
  store i64 %1, ptr %4, align 8
  call void @llvm.lifetime.start.p0(i64 4, ptr %5) #9
  %6 = load i64, ptr %4, align 8
  %7 = load ptr, ptr %3, align 8
  %8 = getelementptr inbounds nuw %struct.SlruCtlData, ptr %7, i32 0, i32 1
  %9 = load i16, ptr %8, align 8
  %10 = zext i16 %9 to i64
  %11 = srem i64 %6, %10
  %12 = trunc i64 %11 to i32
  store i32 %12, ptr %5, align 4
  %13 = load ptr, ptr %3, align 8
  %14 = getelementptr inbounds nuw %struct.SlruCtlData, ptr %13, i32 0, i32 0
  %15 = load ptr, ptr %14, align 8
  %16 = getelementptr inbounds nuw %struct.SlruSharedData, ptr %15, i32 0, i32 7
  %17 = load ptr, ptr %16, align 8
  %18 = load i32, ptr %5, align 4
  %19 = sext i32 %18 to i64
  %20 = getelementptr inbounds %union.LWLockPadded, ptr %17, i64 %19
  call void @llvm.lifetime.end.p0(i64 4, ptr %5) #9
  ret ptr %20
}

; Function Attrs: nounwind uwtable
define dso_local i32 @SimpleLruReadPage_ReadOnly(ptr noundef %0, i64 noundef %1, i32 noundef %2) #0 {
  %4 = alloca i32, align 4
  %5 = alloca ptr, align 8
  %6 = alloca i64, align 8
  %7 = alloca i32, align 4
  %8 = alloca ptr, align 8
  %9 = alloca ptr, align 8
  %10 = alloca i32, align 4
  %11 = alloca i32, align 4
  %12 = alloca i32, align 4
  %13 = alloca i32, align 4
  %14 = alloca i32, align 4
  store ptr %0, ptr %5, align 8
  store i64 %1, ptr %6, align 8
  store i32 %2, ptr %7, align 4
  call void @llvm.lifetime.start.p0(i64 8, ptr %8) #9
  %15 = load ptr, ptr %5, align 8
  %16 = getelementptr inbounds nuw %struct.SlruCtlData, ptr %15, i32 0, i32 0
  %17 = load ptr, ptr %16, align 8
  store ptr %17, ptr %8, align 8
  call void @llvm.lifetime.start.p0(i64 8, ptr %9) #9
  %18 = load ptr, ptr %5, align 8
  %19 = load i64, ptr %6, align 8
  %20 = call ptr @SimpleLruGetBankLock(ptr noundef %18, i64 noundef %19)
  store ptr %20, ptr %9, align 8
  call void @llvm.lifetime.start.p0(i64 4, ptr %10) #9
  %21 = load i64, ptr %6, align 8
  %22 = load ptr, ptr %5, align 8
  %23 = getelementptr inbounds nuw %struct.SlruCtlData, ptr %22, i32 0, i32 1
  %24 = load i16, ptr %23, align 8
  %25 = zext i16 %24 to i64
  %26 = srem i64 %21, %25
  %27 = trunc i64 %26 to i32
  store i32 %27, ptr %10, align 4
  call void @llvm.lifetime.start.p0(i64 4, ptr %11) #9
  %28 = load i32, ptr %10, align 4
  %29 = mul i32 %28, 16
  store i32 %29, ptr %11, align 4
  call void @llvm.lifetime.start.p0(i64 4, ptr %12) #9
  %30 = load i32, ptr %11, align 4
  %31 = add i32 %30, 16
  store i32 %31, ptr %12, align 4
  %32 = load ptr, ptr %9, align 8
  %33 = call zeroext i1 @LWLockAcquire(ptr noundef %32, i32 noundef 1)
  call void @llvm.lifetime.start.p0(i64 4, ptr %13) #9
  %34 = load i32, ptr %11, align 4
  store i32 %34, ptr %13, align 4
  br label %35

35:                                               ; preds = %76, %3
  %36 = load i32, ptr %13, align 4
  %37 = load i32, ptr %12, align 4
  %38 = icmp slt i32 %36, %37
  br i1 %38, label %40, label %39

39:                                               ; preds = %35
  store i32 2, ptr %14, align 4
  br label %79

40:                                               ; preds = %35
  %41 = load ptr, ptr %8, align 8
  %42 = getelementptr inbounds nuw %struct.SlruSharedData, ptr %41, i32 0, i32 2
  %43 = load ptr, ptr %42, align 8
  %44 = load i32, ptr %13, align 4
  %45 = sext i32 %44 to i64
  %46 = getelementptr inbounds i32, ptr %43, i64 %45
  %47 = load i32, ptr %46, align 4
  %48 = icmp ne i32 %47, 0
  br i1 %48, label %49, label %75

49:                                               ; preds = %40
  %50 = load ptr, ptr %8, align 8
  %51 = getelementptr inbounds nuw %struct.SlruSharedData, ptr %50, i32 0, i32 4
  %52 = load ptr, ptr %51, align 8
  %53 = load i32, ptr %13, align 4
  %54 = sext i32 %53 to i64
  %55 = getelementptr inbounds i64, ptr %52, i64 %54
  %56 = load i64, ptr %55, align 8
  %57 = load i64, ptr %6, align 8
  %58 = icmp eq i64 %56, %57
  br i1 %58, label %59, label %75

59:                                               ; preds = %49
  %60 = load ptr, ptr %8, align 8
  %61 = getelementptr inbounds nuw %struct.SlruSharedData, ptr %60, i32 0, i32 2
  %62 = load ptr, ptr %61, align 8
  %63 = load i32, ptr %13, align 4
  %64 = sext i32 %63 to i64
  %65 = getelementptr inbounds i32, ptr %62, i64 %64
  %66 = load i32, ptr %65, align 4
  %67 = icmp ne i32 %66, 1
  br i1 %67, label %68, label %75

68:                                               ; preds = %59
  %69 = load ptr, ptr %8, align 8
  %70 = load i32, ptr %13, align 4
  call void @SlruRecentlyUsed(ptr noundef %69, i32 noundef %70)
  %71 = load ptr, ptr %8, align 8
  %72 = getelementptr inbounds nuw %struct.SlruSharedData, ptr %71, i32 0, i32 12
  %73 = load i32, ptr %72, align 8
  call void @pgstat_count_slru_page_hit(i32 noundef %73)
  %74 = load i32, ptr %13, align 4
  store i32 %74, ptr %4, align 4
  store i32 1, ptr %14, align 4
  br label %79

75:                                               ; preds = %59, %49, %40
  br label %76

76:                                               ; preds = %75
  %77 = load i32, ptr %13, align 4
  %78 = add i32 %77, 1
  store i32 %78, ptr %13, align 4
  br label %35, !llvm.loop !14

79:                                               ; preds = %68, %39
  call void @llvm.lifetime.end.p0(i64 4, ptr %13) #9
  %80 = load i32, ptr %14, align 4
  switch i32 %80, label %89 [
    i32 2, label %81
  ]

81:                                               ; preds = %79
  %82 = load ptr, ptr %9, align 8
  call void @LWLockRelease(ptr noundef %82)
  %83 = load ptr, ptr %9, align 8
  %84 = call zeroext i1 @LWLockAcquire(ptr noundef %83, i32 noundef 0)
  %85 = load ptr, ptr %5, align 8
  %86 = load i64, ptr %6, align 8
  %87 = load i32, ptr %7, align 4
  %88 = call i32 @SimpleLruReadPage(ptr noundef %85, i64 noundef %86, i1 noundef zeroext true, i32 noundef %87)
  store i32 %88, ptr %4, align 4
  store i32 1, ptr %14, align 4
  br label %89

89:                                               ; preds = %81, %79
  call void @llvm.lifetime.end.p0(i64 4, ptr %12) #9
  call void @llvm.lifetime.end.p0(i64 4, ptr %11) #9
  call void @llvm.lifetime.end.p0(i64 4, ptr %10) #9
  call void @llvm.lifetime.end.p0(i64 8, ptr %9) #9
  call void @llvm.lifetime.end.p0(i64 8, ptr %8) #9
  %90 = load i32, ptr %4, align 4
  ret i32 %90
}