; Function Attrs: nounwind uwtable
define dso_local i32 @SimpleLruReadPage_ReadOnly(ptr noundef %0, i64 noundef %1, i32 noundef %2) local_unnamed_addr #3 {
  %4 = load ptr, ptr %0, align 8
  %5 = getelementptr i8, ptr %0, i64 8
  %.val34 = load i16, ptr %5, align 8
  %6 = getelementptr i8, ptr %4, i64 56
  %.val.val = load ptr, ptr %6, align 8
  %7 = zext i16 %.val34 to i64
  %8 = srem i64 %1, %7
  %9 = shl nsw i64 %8, 7
  %10 = getelementptr inbounds i8, ptr %.val.val, i64 %9
  %11 = trunc nsw i64 %8 to i32
  %12 = shl nsw i32 %11, 4
  %13 = tail call zeroext i1 @LWLockAcquire(ptr noundef %10, i32 noundef 1) #15
  %14 = getelementptr inbounds nuw i8, ptr %4, i64 16
  %15 = load ptr, ptr %14, align 8
  %16 = getelementptr inbounds nuw i8, ptr %4, i64 32
  %17 = sext i32 %12 to i64
  %18 = add nsw i32 %12, 16
  br label %19

19:                                               ; preds = %3, %45
  %indvars.iv = phi i64 [ %17, %3 ], [ %indvars.iv.next, %45 ]
  %20 = getelementptr inbounds i32, ptr %15, i64 %indvars.iv
  %21 = load i32, ptr %20, align 4
  %.not = icmp eq i32 %21, 0
  br i1 %.not, label %45, label %22

22:                                               ; preds = %19
  %23 = load ptr, ptr %16, align 8
  %24 = getelementptr inbounds i64, ptr %23, i64 %indvars.iv
  %25 = load i64, ptr %24, align 8
  %26 = icmp ne i64 %25, %1
  %.not32 = icmp eq i32 %21, 1
  %or.cond = or i1 %.not32, %26
  br i1 %or.cond, label %45, label %27

27:                                               ; preds = %22
  %28 = trunc nsw i64 %indvars.iv to i32
  %29 = ashr i32 %28, 4
  %30 = getelementptr inbounds nuw i8, ptr %4, i64 64
  %31 = load ptr, ptr %30, align 8
  %32 = sext i32 %29 to i64
  %33 = getelementptr inbounds i32, ptr %31, i64 %32
  %34 = load i32, ptr %33, align 4
  %35 = getelementptr inbounds nuw i8, ptr %4, i64 40
  %36 = load ptr, ptr %35, align 8
  %37 = getelementptr inbounds i32, ptr %36, i64 %indvars.iv
  %38 = load i32, ptr %37, align 4
  %.not.i = icmp eq i32 %34, %38
  br i1 %.not.i, label %SlruRecentlyUsed.exit, label %39

39:                                               ; preds = %27
  %40 = add i32 %34, 1
  store i32 %40, ptr %33, align 4
  %41 = load ptr, ptr %35, align 8
  %42 = getelementptr inbounds i32, ptr %41, i64 %indvars.iv
  store i32 %40, ptr %42, align 4
  br label %SlruRecentlyUsed.exit

SlruRecentlyUsed.exit:                            ; preds = %27, %39
  %43 = getelementptr inbounds nuw i8, ptr %4, i64 96
  %44 = load i32, ptr %43, align 8
  tail call void @pgstat_count_slru_page_hit(i32 noundef %44) #15
  br label %48

45:                                               ; preds = %19, %22
  %indvars.iv.next = add nsw i64 %indvars.iv, 1
  %lftr.wideiv = trunc i64 %indvars.iv.next to i32
  %exitcond.not = icmp eq i32 %18, %lftr.wideiv
  br i1 %exitcond.not, label %.critedge, label %19, !llvm.loop !11

.critedge:                                        ; preds = %45
  tail call void @LWLockRelease(ptr noundef %10) #15
  %46 = tail call zeroext i1 @LWLockAcquire(ptr noundef %10, i32 noundef 0) #15
  %47 = tail call i32 @SimpleLruReadPage(ptr noundef nonnull %0, i64 noundef %1, i1 noundef zeroext true, i32 noundef %2)
  br label %48

48:                                               ; preds = %SlruRecentlyUsed.exit, %.critedge
  %.1 = phi i32 [ %47, %.critedge ], [ %28, %SlruRecentlyUsed.exit ]
  ret i32 %.1
}